target datalayout = "e-m:e-p270:32:32-p271:32:32-p272:64:64-i64:64-i128:128-f80:128-n8:16:32:64-S128"
target triple = "x86_64-pc-linux-gnu"

; Function Attrs: mustprogress nounwind uwtable
define internal void @_ZN4perfL11printOsInfoEv() #4 {
  ret void
}

; Function Attrs: mustprogress uwtable
define hidden void @_ZN4perf13printCudaInfoEv() #5 {
  %1 = alloca i32, align 4
  call void @_ZN4perfL11printOsInfoEv()
  store i32 0, ptr %1, align 4
  br label %2

2:                                                ; preds = %8, %0
  %3 = load i32, ptr %1, align 4
  %4 = call noundef i32 @_ZN2cv4cuda25getCudaEnabledDeviceCountEv()
  %5 = icmp slt i32 %3, %4
  br i1 %5, label %6, label %11

6:                                                ; preds = %2
  %7 = load i32, ptr %1, align 4
  call void @_ZN2cv4cuda19printCudaDeviceInfoEi(i32 noundef %7)
  br label %8

8:                                                ; preds = %6
  %9 = load i32, ptr %1, align 4
  %10 = add nsw i32 %9, 1
  store i32 %10, ptr %1, align 4
  br label %2, !llvm.loop !4

11:                                               ; preds = %2
  ret void
}