; Function Attrs: mustprogress uwtable
define hidden void @_ZN4perf13printCudaInfoEv() local_unnamed_addr #3 {
  %1 = tail call noundef i32 @_ZN2cv4cuda25getCudaEnabledDeviceCountEv()
  %2 = icmp sgt i32 %1, 0
  br i1 %2, label %.lr.ph, label %._crit_edge

.lr.ph:                                           ; preds = %0, %.lr.ph
  %.03 = phi i32 [ %3, %.lr.ph ], [ 0, %0 ]
  tail call void @_ZN2cv4cuda19printCudaDeviceInfoEi(i32 noundef %.03)
  %3 = add nuw nsw i32 %.03, 1
  %4 = tail call noundef i32 @_ZN2cv4cuda25getCudaEnabledDeviceCountEv()
  %5 = icmp slt i32 %3, %4
  br i1 %5, label %.lr.ph, label %._crit_edge, !llvm.loop !4

._crit_edge:                                      ; preds = %.lr.ph, %0
  ret void
}